target datalayout = "e-m:e-p270:32:32-p271:32:32-p272:64:64-i64:64-i128:128-f80:128-n8:16:32:64-S128"
target triple = "x86_64-pc-linux-gnu"

@.str.37 = private unnamed_addr constant [38 x i8] c"The requested URL returned error: %ld\00", align 1

; Function Attrs: nounwind uwtable
define dso_local void @normalize_curl_result(ptr noundef %0, i64 noundef %1, ptr noundef %2, i64 noundef %3) #0 {
  %5 = alloca ptr, align 8
  %6 = alloca i64, align 8
  %7 = alloca ptr, align 8
  %8 = alloca i64, align 8
  store ptr %0, ptr %5, align 8, !tbaa !11
  store i64 %1, ptr %6, align 8, !tbaa !9
  store ptr %2, ptr %7, align 8, !tbaa !4
  store i64 %3, ptr %8, align 8, !tbaa !9
  %9 = load ptr, ptr %5, align 8, !tbaa !11
  %10 = load i32, ptr %9, align 4, !tbaa !19
  %11 = icmp eq i32 %10, 0
  br i1 %11, label %12, label %21

12:                                               ; preds = %4
  %13 = load i64, ptr %6, align 8, !tbaa !9
  %14 = icmp sge i64 %13, 300
  br i1 %14, label %15, label %21

15:                                               ; preds = %12
  %16 = load ptr, ptr %5, align 8, !tbaa !11
  store i32 22, ptr %16, align 4, !tbaa !19
  %17 = load ptr, ptr %7, align 8, !tbaa !4
  %18 = load i64, ptr %8, align 8, !tbaa !9
  %19 = load i64, ptr %6, align 8, !tbaa !9
  %20 = call i32 (ptr, i64, ptr, ...) @xsnprintf(ptr noundef %17, i64 noundef %18, ptr noundef @.str.37, i64 noundef %19)
  br label %21

21:                                               ; preds = %15, %12, %4
  ret void
}