; Function Attrs: nounwind uwtable
define dso_local void @normalize_curl_result(ptr noundef captures(none) %0, i64 noundef %1, ptr noundef %2, i64 noundef %3) local_unnamed_addr #3 {
  %5 = load i32, ptr %0, align 4, !tbaa !38
  %6 = icmp eq i32 %5, 0
  %7 = icmp sgt i64 %1, 299
  %or.cond = and i1 %7, %6
  br i1 %or.cond, label %8, label %10

8:                                                ; preds = %4
  store i32 22, ptr %0, align 4, !tbaa !38
  %9 = tail call i32 (ptr, i64, ptr, ...) @xsnprintf(ptr noundef %2, i64 noundef %3, ptr noundef nonnull @.str.37, i64 noundef %1) #22
  br label %10

10:                                               ; preds = %8, %4
  ret void
}